target datalayout = "e-m:e-p270:32:32-p271:32:32-p272:64:64-i64:64-i128:128-f80:128-n8:16:32:64-S128"
target triple = "x86_64-pc-linux-gnu"

%struct.wtapng_block_s = type { i32, i32, ptr, ptr, ptr }
%struct.section_info_t = type { i32, i16, i16, ptr, i64, i32, i64, i64 }
%struct.pcapng_block_header_s = type { i32, i32 }
%struct.pcapng_section_header_block_s = type { i32, i16, i16, i64 }
%struct.wtapng_section_mandatory_s = type { i64 }

@.str.10 = private unnamed_addr constant [47 x i8] c"pcapng: unknown byte-order magic number 0x%08x\00", align 1
@.str.11 = private unnamed_addr constant [77 x i8] c"pcapng: total block length %u of an SHB is less than the minimum SHB size %u\00", align 1
@.str.12 = private unnamed_addr constant [50 x i8] c"pcapng: total block length %u is too large (> %u)\00", align 1
@.str.13 = private unnamed_addr constant [34 x i8] c"pcapng: unknown SHB version %u.%u\00", align 1

; Function Attrs: nounwind uwtable
define internal i32 @pcapng_read_section_header_block(ptr noundef %0, ptr noundef %1, ptr noundef %2, ptr noundef %3, ptr noundef %4, ptr noundef %5) #0 {
  %7 = alloca i32, align 4
  %8 = alloca ptr, align 8
  %9 = alloca ptr, align 8
  %10 = alloca ptr, align 8
  %11 = alloca ptr, align 8
  %12 = alloca ptr, align 8
  %13 = alloca ptr, align 8
  %14 = alloca i32, align 4
  %15 = alloca i16, align 2
  %16 = alloca i16, align 2
  %17 = alloca i32, align 4
  %18 = alloca %struct.pcapng_section_header_block_s, align 8
  %19 = alloca ptr, align 8
  store ptr %0, ptr %8, align 8
  store ptr %1, ptr %9, align 8
  store ptr %2, ptr %10, align 8
  store ptr %3, ptr %11, align 8
  store ptr %4, ptr %12, align 8
  store ptr %5, ptr %13, align 8
  %20 = load ptr, ptr %8, align 8
  %21 = load ptr, ptr %12, align 8
  %22 = load ptr, ptr %13, align 8
  %23 = call i32 @wtap_read_bytes(ptr noundef %20, ptr noundef %18, i32 noundef 16, ptr noundef %21, ptr noundef %22)
  %24 = icmp ne i32 %23, 0
  br i1 %24, label %26, label %25

25:                                               ; preds = %6
  store i32 2, ptr %7, align 4
  br label %235

26:                                               ; preds = %6
  %27 = getelementptr inbounds %struct.pcapng_section_header_block_s, ptr %18, i32 0, i32 0
  %28 = load i32, ptr %27, align 8
  switch i32 %28, label %92 [
    i32 439041101, label %29
    i32 1295788826, label %36
  ]

29:                                               ; preds = %26
  store i32 0, ptr %14, align 4
  %30 = getelementptr inbounds %struct.pcapng_section_header_block_s, ptr %18, i32 0, i32 1
  %31 = load i16, ptr %30, align 4
  store i16 %31, ptr %15, align 2
  %32 = getelementptr inbounds %struct.pcapng_section_header_block_s, ptr %18, i32 0, i32 2
  %33 = load i16, ptr %32, align 2
  store i16 %33, ptr %16, align 2
  br label %34

34:                                               ; preds = %29
  br label %35

35:                                               ; preds = %34
  br label %98

36:                                               ; preds = %26
  store i32 1, ptr %14, align 4
  %37 = getelementptr inbounds %struct.pcapng_section_header_block_s, ptr %18, i32 0, i32 1
  %38 = load i16, ptr %37, align 4
  %39 = zext i16 %38 to i32
  %40 = ashr i32 %39, 8
  %41 = trunc i32 %40 to i16
  %42 = zext i16 %41 to i32
  %43 = getelementptr inbounds %struct.pcapng_section_header_block_s, ptr %18, i32 0, i32 1
  %44 = load i16, ptr %43, align 4
  %45 = zext i16 %44 to i32
  %46 = shl i32 %45, 8
  %47 = trunc i32 %46 to i16
  %48 = zext i16 %47 to i32
  %49 = or i32 %42, %48
  %50 = trunc i32 %49 to i16
  store i16 %50, ptr %15, align 2
  %51 = getelementptr inbounds %struct.pcapng_section_header_block_s, ptr %18, i32 0, i32 2
  %52 = load i16, ptr %51, align 2
  %53 = zext i16 %52 to i32
  %54 = ashr i32 %53, 8
  %55 = trunc i32 %54 to i16
  %56 = zext i16 %55 to i32
  %57 = getelementptr inbounds %struct.pcapng_section_header_block_s, ptr %18, i32 0, i32 2
  %58 = load i16, ptr %57, align 2
  %59 = zext i16 %58 to i32
  %60 = shl i32 %59, 8
  %61 = trunc i32 %60 to i16
  %62 = zext i16 %61 to i32
  %63 = or i32 %56, %62
  %64 = trunc i32 %63 to i16
  store i16 %64, ptr %16, align 2
  %65 = load ptr, ptr %9, align 8
  %66 = getelementptr inbounds %struct.pcapng_block_header_s, ptr %65, i32 0, i32 1
  %67 = load i32, ptr %66, align 4
  %68 = and i32 %67, 255
  %69 = shl i32 %68, 24
  %70 = load ptr, ptr %9, align 8
  %71 = getelementptr inbounds %struct.pcapng_block_header_s, ptr %70, i32 0, i32 1
  %72 = load i32, ptr %71, align 4
  %73 = and i32 %72, 65280
  %74 = shl i32 %73, 8
  %75 = or i32 %69, %74
  %76 = load ptr, ptr %9, align 8
  %77 = getelementptr inbounds %struct.pcapng_block_header_s, ptr %76, i32 0, i32 1
  %78 = load i32, ptr %77, align 4
  %79 = and i32 %78, 16711680
  %80 = lshr i32 %79, 8
  %81 = or i32 %75, %80
  %82 = load ptr, ptr %9, align 8
  %83 = getelementptr inbounds %struct.pcapng_block_header_s, ptr %82, i32 0, i32 1
  %84 = load i32, ptr %83, align 4
  %85 = and i32 %84, -16777216
  %86 = lshr i32 %85, 24
  %87 = or i32 %81, %86
  %88 = load ptr, ptr %9, align 8
  %89 = getelementptr inbounds %struct.pcapng_block_header_s, ptr %88, i32 0, i32 1
  store i32 %87, ptr %89, align 4
  br label %90

90:                                               ; preds = %36
  br label %91

91:                                               ; preds = %90
  br label %98

92:                                               ; preds = %26
  %93 = load ptr, ptr %12, align 8
  store i32 -13, ptr %93, align 4
  %94 = getelementptr inbounds %struct.pcapng_section_header_block_s, ptr %18, i32 0, i32 0
  %95 = load i32, ptr %94, align 8
  %96 = call noalias ptr (ptr, ptr, ...) @wmem_strdup_printf(ptr noundef null, ptr noundef @.str.10, i32 noundef %95)
  %97 = load ptr, ptr %13, align 8
  store ptr %96, ptr %97, align 8
  store i32 1, ptr %7, align 4
  br label %235

98:                                               ; preds = %91, %35
  %99 = load ptr, ptr %9, align 8
  %100 = getelementptr inbounds %struct.pcapng_block_header_s, ptr %99, i32 0, i32 1
  %101 = load i32, ptr %100, align 4
  %102 = add i32 %101, 3
  %103 = and i32 %102, -4
  %104 = load ptr, ptr %9, align 8
  %105 = getelementptr inbounds %struct.pcapng_block_header_s, ptr %104, i32 0, i32 1
  store i32 %103, ptr %105, align 4
  %106 = load ptr, ptr %9, align 8
  %107 = getelementptr inbounds %struct.pcapng_block_header_s, ptr %106, i32 0, i32 1
  %108 = load i32, ptr %107, align 4
  %109 = icmp ult i32 %108, 28
  br i1 %109, label %110, label %117

110:                                              ; preds = %98
  %111 = load ptr, ptr %12, align 8
  store i32 -13, ptr %111, align 4
  %112 = load ptr, ptr %9, align 8
  %113 = getelementptr inbounds %struct.pcapng_block_header_s, ptr %112, i32 0, i32 1
  %114 = load i32, ptr %113, align 4
  %115 = call noalias ptr (ptr, ptr, ...) @wmem_strdup_printf(ptr noundef null, ptr noundef @.str.11, i32 noundef %114, i32 noundef 28)
  %116 = load ptr, ptr %13, align 8
  store ptr %115, ptr %116, align 8
  store i32 2, ptr %7, align 4
  br label %235

117:                                              ; preds = %98
  %118 = load ptr, ptr %9, align 8
  %119 = getelementptr inbounds %struct.pcapng_block_header_s, ptr %118, i32 0, i32 1
  %120 = load i32, ptr %119, align 4
  %121 = icmp ugt i32 %120, 134348832
  br i1 %121, label %122, label %129

122:                                              ; preds = %117
  %123 = load ptr, ptr %12, align 8
  store i32 -13, ptr %123, align 4
  %124 = load ptr, ptr %9, align 8
  %125 = getelementptr inbounds %struct.pcapng_block_header_s, ptr %124, i32 0, i32 1
  %126 = load i32, ptr %125, align 4
  %127 = call noalias ptr (ptr, ptr, ...) @wmem_strdup_printf(ptr noundef null, ptr noundef @.str.12, i32 noundef %126, i32 noundef 134348832)
  %128 = load ptr, ptr %13, align 8
  store ptr %127, ptr %128, align 8
  store i32 2, ptr %7, align 4
  br label %235

129:                                              ; preds = %117
  %130 = load i16, ptr %15, align 2
  %131 = zext i16 %130 to i32
  %132 = icmp eq i32 %131, 1
  br i1 %132, label %133, label %141

133:                                              ; preds = %129
  %134 = load i16, ptr %16, align 2
  %135 = zext i16 %134 to i32
  %136 = icmp eq i32 %135, 0
  br i1 %136, label %149, label %137

137:                                              ; preds = %133
  %138 = load i16, ptr %16, align 2
  %139 = zext i16 %138 to i32
  %140 = icmp eq i32 %139, 2
  br i1 %140, label %149, label %141

141:                                              ; preds = %137, %129
  %142 = load ptr, ptr %12, align 8
  store i32 -4, ptr %142, align 4
  %143 = load i16, ptr %15, align 2
  %144 = zext i16 %143 to i32
  %145 = load i16, ptr %16, align 2
  %146 = zext i16 %145 to i32
  %147 = call noalias ptr (ptr, ptr, ...) @wmem_strdup_printf(ptr noundef null, ptr noundef @.str.13, i32 noundef %144, i32 noundef %146)
  %148 = load ptr, ptr %13, align 8
  store ptr %147, ptr %148, align 8
  store i32 2, ptr %7, align 4
  br label %235

149:                                              ; preds = %137, %133
  %150 = load ptr, ptr %10, align 8
  call void @llvm.memset.p0.i64(ptr align 8 %150, i8 0, i64 48, i1 false)
  %151 = load i32, ptr %14, align 4
  %152 = load ptr, ptr %10, align 8
  %153 = getelementptr inbounds %struct.section_info_t, ptr %152, i32 0, i32 0
  store i32 %151, ptr %153, align 8
  %154 = load i16, ptr %15, align 2
  %155 = load ptr, ptr %10, align 8
  %156 = getelementptr inbounds %struct.section_info_t, ptr %155, i32 0, i32 1
  store i16 %154, ptr %156, align 4
  %157 = load i16, ptr %16, align 2
  %158 = load ptr, ptr %10, align 8
  %159 = getelementptr inbounds %struct.section_info_t, ptr %158, i32 0, i32 2
  store i16 %157, ptr %159, align 2
  %160 = call ptr @wtap_block_create(i32 noundef 0)
  %161 = load ptr, ptr %11, align 8
  %162 = getelementptr inbounds %struct.wtapng_block_s, ptr %161, i32 0, i32 2
  store ptr %160, ptr %162, align 8
  %163 = load ptr, ptr %11, align 8
  %164 = getelementptr inbounds %struct.wtapng_block_s, ptr %163, i32 0, i32 2
  %165 = load ptr, ptr %164, align 8
  %166 = call ptr @wtap_block_get_mandatory_data(ptr noundef %165)
  store ptr %166, ptr %19, align 8
  %167 = load ptr, ptr %10, align 8
  %168 = getelementptr inbounds %struct.section_info_t, ptr %167, i32 0, i32 0
  %169 = load i32, ptr %168, align 8
  %170 = icmp ne i32 %169, 0
  br i1 %170, label %171, label %213

171:                                              ; preds = %149
  %172 = getelementptr inbounds %struct.pcapng_section_header_block_s, ptr %18, i32 0, i32 3
  %173 = load i64, ptr %172, align 8
  %174 = and i64 %173, 255
  %175 = shl i64 %174, 56
  %176 = getelementptr inbounds %struct.pcapng_section_header_block_s, ptr %18, i32 0, i32 3
  %177 = load i64, ptr %176, align 8
  %178 = and i64 %177, 65280
  %179 = shl i64 %178, 40
  %180 = or i64 %175, %179
  %181 = getelementptr inbounds %struct.pcapng_section_header_block_s, ptr %18, i32 0, i32 3
  %182 = load i64, ptr %181, align 8
  %183 = and i64 %182, 16711680
  %184 = shl i64 %183, 24
  %185 = or i64 %180, %184
  %186 = getelementptr inbounds %struct.pcapng_section_header_block_s, ptr %18, i32 0, i32 3
  %187 = load i64, ptr %186, align 8
  %188 = and i64 %187, 4278190080
  %189 = shl i64 %188, 8
  %190 = or i64 %185, %189
  %191 = getelementptr inbounds %struct.pcapng_section_header_block_s, ptr %18, i32 0, i32 3
  %192 = load i64, ptr %191, align 8
  %193 = and i64 %192, 1095216660480
  %194 = lshr i64 %193, 8
  %195 = or i64 %190, %194
  %196 = getelementptr inbounds %struct.pcapng_section_header_block_s, ptr %18, i32 0, i32 3
  %197 = load i64, ptr %196, align 8
  %198 = and i64 %197, 280375465082880
  %199 = lshr i64 %198, 24
  %200 = or i64 %195, %199
  %201 = getelementptr inbounds %struct.pcapng_section_header_block_s, ptr %18, i32 0, i32 3
  %202 = load i64, ptr %201, align 8
  %203 = and i64 %202, 71776119061217280
  %204 = lshr i64 %203, 40
  %205 = or i64 %200, %204
  %206 = getelementptr inbounds %struct.pcapng_section_header_block_s, ptr %18, i32 0, i32 3
  %207 = load i64, ptr %206, align 8
  %208 = and i64 %207, -72057594037927936
  %209 = lshr i64 %208, 56
  %210 = or i64 %205, %209
  %211 = load ptr, ptr %19, align 8
  %212 = getelementptr inbounds %struct.wtapng_section_mandatory_s, ptr %211, i32 0, i32 0
  store i64 %210, ptr %212, align 8
  br label %218

213:                                              ; preds = %149
  %214 = getelementptr inbounds %struct.pcapng_section_header_block_s, ptr %18, i32 0, i32 3
  %215 = load i64, ptr %214, align 8
  %216 = load ptr, ptr %19, align 8
  %217 = getelementptr inbounds %struct.wtapng_section_mandatory_s, ptr %216, i32 0, i32 0
  store i64 %215, ptr %217, align 8
  br label %218

218:                                              ; preds = %213, %171
  %219 = load ptr, ptr %9, align 8
  %220 = getelementptr inbounds %struct.pcapng_block_header_s, ptr %219, i32 0, i32 1
  %221 = load i32, ptr %220, align 4
  %222 = sub i32 %221, 28
  store i32 %222, ptr %17, align 4
  %223 = load ptr, ptr %8, align 8
  %224 = load ptr, ptr %11, align 8
  %225 = load ptr, ptr %10, align 8
  %226 = load i32, ptr %17, align 4
  %227 = load ptr, ptr %12, align 8
  %228 = load ptr, ptr %13, align 8
  %229 = call i32 @pcapng_process_options(ptr noundef %223, ptr noundef %224, ptr noundef %225, i32 noundef %226, ptr noundef @pcapng_process_section_header_block_option, i32 noundef 0, ptr noundef %227, ptr noundef %228)
  %230 = icmp ne i32 %229, 0
  br i1 %230, label %232, label %231

231:                                              ; preds = %218
  store i32 2, ptr %7, align 4
  br label %235

232:                                              ; preds = %218
  %233 = load ptr, ptr %11, align 8
  %234 = getelementptr inbounds %struct.wtapng_block_s, ptr %233, i32 0, i32 1
  store i32 1, ptr %234, align 4
  store i32 0, ptr %7, align 4
  br label %235

235:                                              ; preds = %232, %231, %141, %122, %110, %92, %25
  %236 = load i32, ptr %7, align 4
  ret i32 %236
}