; Function Attrs: nounwind uwtable
define internal fastcc range(i32 0, 3) i32 @pcapng_read_section_header_block(ptr noundef %0, ptr noundef nonnull captures(none) %1, ptr noundef nonnull %2, ptr noundef nonnull %3, ptr noundef %4, ptr noundef %5) unnamed_addr #0 {
  %7 = alloca %struct.pcapng_section_header_block_s, align 8
  %8 = call i32 @wtap_read_bytes(ptr noundef %0, ptr noundef nonnull %7, i32 noundef 16, ptr noundef %4, ptr noundef %5) #16
  %.not = icmp eq i32 %8, 0
  br i1 %.not, label %63, label %9

9:                                                ; preds = %6
  %10 = load i32, ptr %7, align 8
  switch i32 %10, label %24 [
    i32 439041101, label %11
    i32 1295788826, label %16
  ]

11:                                               ; preds = %9
  %12 = getelementptr inbounds nuw i8, ptr %7, i64 4
  %13 = load i16, ptr %12, align 4
  %14 = getelementptr inbounds nuw i8, ptr %7, i64 6
  %15 = load i16, ptr %14, align 2
  %.phi.trans.insert = getelementptr inbounds nuw i8, ptr %1, i64 4
  %.pre = load i32, ptr %.phi.trans.insert, align 4
  br label %26

16:                                               ; preds = %9
  %17 = getelementptr inbounds nuw i8, ptr %7, i64 4
  %18 = load i16, ptr %17, align 4
  %rev = call i16 @llvm.bswap.i16(i16 %18)
  %19 = getelementptr inbounds nuw i8, ptr %7, i64 6
  %20 = load i16, ptr %19, align 2
  %rev53 = call i16 @llvm.bswap.i16(i16 %20)
  %21 = getelementptr inbounds nuw i8, ptr %1, i64 4
  %22 = load i32, ptr %21, align 4
  %23 = call i32 @llvm.bswap.i32(i32 %22)
  br label %26

24:                                               ; preds = %9
  store i32 -13, ptr %4, align 4
  %25 = call noalias ptr (ptr, ptr, ...) @wmem_strdup_printf(ptr noundef null, ptr noundef nonnull @.str.10, i32 noundef %10) #16
  store ptr %25, ptr %5, align 8
  br label %63

26:                                               ; preds = %16, %11
  %27 = phi i32 [ %23, %16 ], [ %.pre, %11 ]
  %.051 = phi i16 [ %rev, %16 ], [ %13, %11 ]
  %.050 = phi i16 [ %rev53, %16 ], [ %15, %11 ]
  %.049 = phi i32 [ 1, %16 ], [ 0, %11 ]
  %28 = getelementptr inbounds nuw i8, ptr %1, i64 4
  %29 = add i32 %27, 3
  %30 = and i32 %29, -4
  store i32 %30, ptr %28, align 4
  %31 = icmp ult i32 %29, 28
  br i1 %31, label %32, label %35

32:                                               ; preds = %26
  store i32 -13, ptr %4, align 4
  %33 = load i32, ptr %28, align 4
  %34 = call noalias ptr (ptr, ptr, ...) @wmem_strdup_printf(ptr noundef null, ptr noundef nonnull @.str.11, i32 noundef %33, i32 noundef 28) #16
  store ptr %34, ptr %5, align 8
  br label %63

35:                                               ; preds = %26
  %36 = icmp ugt i32 %30, 134348832
  br i1 %36, label %37, label %40

37:                                               ; preds = %35
  store i32 -13, ptr %4, align 4
  %38 = load i32, ptr %28, align 4
  %39 = call noalias ptr (ptr, ptr, ...) @wmem_strdup_printf(ptr noundef null, ptr noundef nonnull @.str.12, i32 noundef %38, i32 noundef 134348832) #16
  store ptr %39, ptr %5, align 8
  br label %63

40:                                               ; preds = %35
  %41 = icmp eq i16 %.051, 1
  %42 = and i16 %.050, -3
  %or.cond = icmp eq i16 %42, 0
  %or.cond66 = select i1 %41, i1 %or.cond, i1 false
  br i1 %or.cond66, label %47, label %43

43:                                               ; preds = %40
  %44 = zext i16 %.051 to i32
  store i32 -4, ptr %4, align 4
  %45 = zext i16 %.050 to i32
  %46 = call noalias ptr (ptr, ptr, ...) @wmem_strdup_printf(ptr noundef null, ptr noundef nonnull @.str.13, i32 noundef %44, i32 noundef %45) #16
  store ptr %46, ptr %5, align 8
  br label %63

47:                                               ; preds = %40
  %48 = getelementptr inbounds nuw i8, ptr %2, i64 8
  call void @llvm.memset.p0.i64(ptr noundef nonnull align 8 dereferenceable(48) %48, i8 0, i64 40, i1 false)
  store i32 %.049, ptr %2, align 8
  %49 = getelementptr inbounds nuw i8, ptr %2, i64 4
  store i16 1, ptr %49, align 4
  %50 = getelementptr inbounds nuw i8, ptr %2, i64 6
  store i16 %.050, ptr %50, align 2
  %51 = call ptr @wtap_block_create(i32 noundef 0) #16
  %52 = getelementptr inbounds nuw i8, ptr %3, i64 8
  store ptr %51, ptr %52, align 8
  %53 = call ptr @wtap_block_get_mandatory_data(ptr noundef %51) #16
  %54 = load i32, ptr %2, align 8
  %.not57 = icmp eq i32 %54, 0
  %55 = getelementptr inbounds nuw i8, ptr %7, i64 8
  %56 = load i64, ptr %55, align 8
  %57 = call i64 @llvm.bswap.i64(i64 %56)
  %storemerge = select i1 %.not57, i64 %56, i64 %57
  store i64 %storemerge, ptr %53, align 8
  %58 = load i32, ptr %28, align 4
  %59 = add i32 %58, -28
  %60 = call i32 @pcapng_process_options(ptr noundef %0, ptr noundef nonnull %3, ptr noundef nonnull %2, i32 noundef %59, ptr noundef nonnull @pcapng_process_section_header_block_option, i32 noundef 0, ptr noundef %4, ptr noundef %5)
  %.not65 = icmp eq i32 %60, 0
  br i1 %.not65, label %63, label %61

61:                                               ; preds = %47
  %62 = getelementptr inbounds nuw i8, ptr %3, i64 4
  store i32 1, ptr %62, align 4
  br label %63

63:                                               ; preds = %47, %6, %61, %43, %37, %32, %24
  %.0 = phi i32 [ 1, %24 ], [ 2, %32 ], [ 2, %37 ], [ 0, %61 ], [ 2, %43 ], [ 2, %6 ], [ 2, %47 ]
  ret i32 %.0
}